target datalayout = "e-m:e-p270:32:32-p271:32:32-p272:64:64-i64:64-i128:128-f80:128-n8:16:32:64-S128"
target triple = "x86_64-pc-linux-gnu"

%struct._tocEntry = type { ptr, ptr, %struct.CatalogId, i32, i32, i8, ptr, ptr, ptr, ptr, i8, ptr, ptr, ptr, ptr, ptr, ptr, i32, ptr, ptr, ptr, i64, i32, i8, ptr, ptr, i32, ptr, i32, ptr, i32 }
%struct.CatalogId = type { i32, i32 }

@.str.92 = private unnamed_addr constant [8 x i8] c"COMMENT\00", align 1
@.str.93 = private unnamed_addr constant [4 x i8] c"ACL\00", align 1
@.str.94 = private unnamed_addr constant [13 x i8] c"ACL LANGUAGE\00", align 1
@.str.163 = private unnamed_addr constant [14 x i8] c"EVENT TRIGGER\00", align 1
@.str.183 = private unnamed_addr constant [12 x i8] c"DEFAULT ACL\00", align 1
@.str.242 = private unnamed_addr constant [23 x i8] c"MATERIALIZED VIEW DATA\00", align 1
@.str.247 = private unnamed_addr constant [15 x i8] c"EVENT TRIGGER \00", align 1

; Function Attrs: nounwind uwtable
define internal i32 @_tocEntryRestorePass(ptr noundef %0) #0 {
  %2 = alloca i32, align 4
  %3 = alloca ptr, align 8
  store ptr %0, ptr %3, align 8
  %4 = load ptr, ptr %3, align 8
  %5 = getelementptr inbounds nuw %struct._tocEntry, ptr %4, i32 0, i32 12
  %6 = load ptr, ptr %5, align 8
  %7 = call i32 @strcmp(ptr noundef %6, ptr noundef @.str.93) #14
  %8 = icmp eq i32 %7, 0
  br i1 %8, label %21, label %9

9:                                                ; preds = %1
  %10 = load ptr, ptr %3, align 8
  %11 = getelementptr inbounds nuw %struct._tocEntry, ptr %10, i32 0, i32 12
  %12 = load ptr, ptr %11, align 8
  %13 = call i32 @strcmp(ptr noundef %12, ptr noundef @.str.94) #14
  %14 = icmp eq i32 %13, 0
  br i1 %14, label %21, label %15

15:                                               ; preds = %9
  %16 = load ptr, ptr %3, align 8
  %17 = getelementptr inbounds nuw %struct._tocEntry, ptr %16, i32 0, i32 12
  %18 = load ptr, ptr %17, align 8
  %19 = call i32 @strcmp(ptr noundef %18, ptr noundef @.str.183) #14
  %20 = icmp eq i32 %19, 0
  br i1 %20, label %21, label %22

21:                                               ; preds = %15, %9, %1
  store i32 1, ptr %2, align 4
  br label %49

22:                                               ; preds = %15
  %23 = load ptr, ptr %3, align 8
  %24 = getelementptr inbounds nuw %struct._tocEntry, ptr %23, i32 0, i32 12
  %25 = load ptr, ptr %24, align 8
  %26 = call i32 @strcmp(ptr noundef %25, ptr noundef @.str.163) #14
  %27 = icmp eq i32 %26, 0
  br i1 %27, label %34, label %28

28:                                               ; preds = %22
  %29 = load ptr, ptr %3, align 8
  %30 = getelementptr inbounds nuw %struct._tocEntry, ptr %29, i32 0, i32 12
  %31 = load ptr, ptr %30, align 8
  %32 = call i32 @strcmp(ptr noundef %31, ptr noundef @.str.242) #14
  %33 = icmp eq i32 %32, 0
  br i1 %33, label %34, label %35

34:                                               ; preds = %28, %22
  store i32 2, ptr %2, align 4
  br label %49

35:                                               ; preds = %28
  %36 = load ptr, ptr %3, align 8
  %37 = getelementptr inbounds nuw %struct._tocEntry, ptr %36, i32 0, i32 12
  %38 = load ptr, ptr %37, align 8
  %39 = call i32 @strcmp(ptr noundef %38, ptr noundef @.str.92) #14
  %40 = icmp eq i32 %39, 0
  br i1 %40, label %41, label %48

41:                                               ; preds = %35
  %42 = load ptr, ptr %3, align 8
  %43 = getelementptr inbounds nuw %struct._tocEntry, ptr %42, i32 0, i32 6
  %44 = load ptr, ptr %43, align 8
  %45 = call i32 @strncmp(ptr noundef %44, ptr noundef @.str.247, i64 noundef 14) #14
  %46 = icmp eq i32 %45, 0
  br i1 %46, label %47, label %48

47:                                               ; preds = %41
  store i32 2, ptr %2, align 4
  br label %49

48:                                               ; preds = %41, %35
  store i32 0, ptr %2, align 4
  br label %49

49:                                               ; preds = %48, %47, %34, %21
  %50 = load i32, ptr %2, align 4
  ret i32 %50
}