; Function Attrs: mustprogress nofree nounwind willreturn memory(read, inaccessiblemem: none) uwtable
define internal fastcc range(i32 0, 3) i32 @_tocEntryRestorePass(ptr noundef readonly captures(none) %0) unnamed_addr #9 {
  %2 = getelementptr inbounds nuw i8, ptr %0, i64 88
  %3 = load ptr, ptr %2, align 8
  %4 = tail call i32 @strcmp(ptr noundef nonnull dereferenceable(1) %3, ptr noundef nonnull dereferenceable(4) @.str.93) #24
  %5 = icmp eq i32 %4, 0
  br i1 %5, label %27, label %6

6:                                                ; preds = %1
  %7 = tail call i32 @strcmp(ptr noundef nonnull dereferenceable(1) %3, ptr noundef nonnull dereferenceable(13) @.str.94) #24
  %8 = icmp eq i32 %7, 0
  br i1 %8, label %27, label %9

9:                                                ; preds = %6
  %10 = tail call i32 @strcmp(ptr noundef nonnull dereferenceable(1) %3, ptr noundef nonnull dereferenceable(12) @.str.183) #24
  %11 = icmp eq i32 %10, 0
  br i1 %11, label %27, label %12

12:                                               ; preds = %9
  %13 = tail call i32 @strcmp(ptr noundef nonnull dereferenceable(1) %3, ptr noundef nonnull dereferenceable(14) @.str.163) #24
  %14 = icmp eq i32 %13, 0
  br i1 %14, label %27, label %15

15:                                               ; preds = %12
  %16 = tail call i32 @strcmp(ptr noundef nonnull dereferenceable(1) %3, ptr noundef nonnull dereferenceable(23) @.str.242) #24
  %17 = icmp eq i32 %16, 0
  br i1 %17, label %27, label %18

18:                                               ; preds = %15
  %19 = tail call i32 @strcmp(ptr noundef nonnull dereferenceable(1) %3, ptr noundef nonnull dereferenceable(8) @.str.92) #24
  %20 = icmp eq i32 %19, 0
  br i1 %20, label %21, label %26

21:                                               ; preds = %18
  %22 = getelementptr inbounds nuw i8, ptr %0, i64 40
  %23 = load ptr, ptr %22, align 8
  %24 = tail call i32 @strncmp(ptr noundef nonnull dereferenceable(1) %23, ptr noundef nonnull dereferenceable(15) @.str.247, i64 noundef 14) #24
  %25 = icmp eq i32 %24, 0
  br i1 %25, label %27, label %26

26:                                               ; preds = %21, %18
  br label %27

27:                                               ; preds = %21, %12, %15, %1, %6, %9, %26
  %.0 = phi i32 [ 0, %26 ], [ 1, %9 ], [ 1, %6 ], [ 1, %1 ], [ 2, %15 ], [ 2, %12 ], [ 2, %21 ]
  ret i32 %.0
}